target datalayout = "e-m:e-p270:32:32-p271:32:32-p272:64:64-i64:64-i128:128-f80:128-n8:16:32:64-S128"
target triple = "x86_64-pc-linux-gnu"

%"class.std::vector" = type { %"struct.std::_Vector_base" }
%"struct.std::_Vector_base" = type { %"struct.std::_Vector_base<std::pair<std::__cxx11::basic_string<char>, std::__cxx11::basic_string<char>>, std::allocator<std::pair<std::__cxx11::basic_string<char>, std::__cxx11::basic_string<char>>>>::_Vector_impl" }
%"struct.std::_Vector_base<std::pair<std::__cxx11::basic_string<char>, std::__cxx11::basic_string<char>>, std::allocator<std::pair<std::__cxx11::basic_string<char>, std::__cxx11::basic_string<char>>>>::_Vector_impl" = type { %"struct.std::_Vector_base<std::pair<std::__cxx11::basic_string<char>, std::__cxx11::basic_string<char>>, std::allocator<std::pair<std::__cxx11::basic_string<char>, std::__cxx11::basic_string<char>>>>::_Vector_impl_data" }
%"struct.std::_Vector_base<std::pair<std::__cxx11::basic_string<char>, std::__cxx11::basic_string<char>>, std::allocator<std::pair<std::__cxx11::basic_string<char>, std::__cxx11::basic_string<char>>>>::_Vector_impl_data" = type { ptr, ptr, ptr }

@__dso_handle = external hidden global i8
@_ZZN6Assimp7Collada33GetColladaAssimpMetaKeysCamelCaseB5cxx11EvE6resultB5cxx11 = internal global %"class.std::vector" zeroinitializer, align 8
@_ZGVZN6Assimp7Collada33GetColladaAssimpMetaKeysCamelCaseB5cxx11EvE6resultB5cxx11 = internal global i64 0, align 8

; Function Attrs: mustprogress uwtable
define hidden noundef nonnull align 8 dereferenceable(24) ptr @_ZN6Assimp7Collada33GetColladaAssimpMetaKeysCamelCaseB5cxx11Ev() #0 personality ptr @__gxx_personality_v0 {
  %1 = alloca ptr, align 8
  %2 = alloca i32, align 4
  %3 = load atomic i8, ptr @_ZGVZN6Assimp7Collada33GetColladaAssimpMetaKeysCamelCaseB5cxx11EvE6resultB5cxx11 acquire, align 8
  %4 = icmp eq i8 %3, 0
  br i1 %4, label %5, label %11, !prof !3

5:                                                ; preds = %0
  %6 = call i32 @__cxa_guard_acquire(ptr @_ZGVZN6Assimp7Collada33GetColladaAssimpMetaKeysCamelCaseB5cxx11EvE6resultB5cxx11) #2
  %7 = icmp ne i32 %6, 0
  br i1 %7, label %8, label %11

8:                                                ; preds = %5
  invoke void @_ZN6Assimp7Collada34MakeColladaAssimpMetaKeysCamelCaseB5cxx11Ev(ptr dead_on_unwind writable sret(%"class.std::vector") align 8 @_ZZN6Assimp7Collada33GetColladaAssimpMetaKeysCamelCaseB5cxx11EvE6resultB5cxx11)
          to label %9 unwind label %12

9:                                                ; preds = %8
  %10 = call i32 @__cxa_atexit(ptr @_ZNSt6vectorISt4pairINSt7__cxx1112basic_stringIcSt11char_traitsIcESaIcEEES6_ESaIS7_EED2Ev, ptr @_ZZN6Assimp7Collada33GetColladaAssimpMetaKeysCamelCaseB5cxx11EvE6resultB5cxx11, ptr @__dso_handle) #2
  call void @__cxa_guard_release(ptr @_ZGVZN6Assimp7Collada33GetColladaAssimpMetaKeysCamelCaseB5cxx11EvE6resultB5cxx11) #2
  br label %11

11:                                               ; preds = %9, %5, %0
  ret ptr @_ZZN6Assimp7Collada33GetColladaAssimpMetaKeysCamelCaseB5cxx11EvE6resultB5cxx11

12:                                               ; preds = %8
  %13 = landingpad { ptr, i32 }
          cleanup
  %14 = extractvalue { ptr, i32 } %13, 0
  store ptr %14, ptr %1, align 8
  %15 = extractvalue { ptr, i32 } %13, 1
  store i32 %15, ptr %2, align 4
  call void @__cxa_guard_abort(ptr @_ZGVZN6Assimp7Collada33GetColladaAssimpMetaKeysCamelCaseB5cxx11EvE6resultB5cxx11) #2
  br label %16

16:                                               ; preds = %12
  %17 = load ptr, ptr %1, align 8
  %18 = load i32, ptr %2, align 4
  %19 = insertvalue { ptr, i32 } poison, ptr %17, 0
  %20 = insertvalue { ptr, i32 } %19, i32 %18, 1
  resume { ptr, i32 } %20
}