; Function Attrs: mustprogress uwtable
define hidden noundef nonnull align 8 dereferenceable(24) ptr @_ZN6Assimp7Collada33GetColladaAssimpMetaKeysCamelCaseB5cxx11Ev() local_unnamed_addr #0 personality ptr @__gxx_personality_v0 {
  %1 = load atomic i8, ptr @_ZGVZN6Assimp7Collada33GetColladaAssimpMetaKeysCamelCaseB5cxx11EvE6resultB5cxx11 acquire, align 8
  %2 = icmp eq i8 %1, 0
  br i1 %2, label %3, label %8, !prof !5

3:                                                ; preds = %0
  %4 = tail call i32 @__cxa_guard_acquire(ptr nonnull @_ZGVZN6Assimp7Collada33GetColladaAssimpMetaKeysCamelCaseB5cxx11EvE6resultB5cxx11) #16
  %.not = icmp eq i32 %4, 0
  br i1 %.not, label %8, label %5

5:                                                ; preds = %3
  invoke void @_ZN6Assimp7Collada34MakeColladaAssimpMetaKeysCamelCaseB5cxx11Ev(ptr dead_on_unwind nonnull writable sret(%"class.std::vector") align 8 @_ZZN6Assimp7Collada33GetColladaAssimpMetaKeysCamelCaseB5cxx11EvE6resultB5cxx11)
          to label %6 unwind label %9

6:                                                ; preds = %5
  %7 = tail call i32 @__cxa_atexit(ptr nonnull @_ZNSt6vectorISt4pairINSt7__cxx1112basic_stringIcSt11char_traitsIcESaIcEEES6_ESaIS7_EED2Ev, ptr nonnull @_ZZN6Assimp7Collada33GetColladaAssimpMetaKeysCamelCaseB5cxx11EvE6resultB5cxx11, ptr nonnull @__dso_handle) #16
  tail call void @__cxa_guard_release(ptr nonnull @_ZGVZN6Assimp7Collada33GetColladaAssimpMetaKeysCamelCaseB5cxx11EvE6resultB5cxx11) #16
  br label %8

8:                                                ; preds = %6, %3, %0
  ret ptr @_ZZN6Assimp7Collada33GetColladaAssimpMetaKeysCamelCaseB5cxx11EvE6resultB5cxx11

9:                                                ; preds = %5
  %10 = landingpad { ptr, i32 }
          cleanup
  tail call void @__cxa_guard_abort(ptr nonnull @_ZGVZN6Assimp7Collada33GetColladaAssimpMetaKeysCamelCaseB5cxx11EvE6resultB5cxx11) #16
  resume { ptr, i32 } %10
}